; Function Attrs: mustprogress uwtable
define internal void @_ZN12_GLOBAL__N_123AdaptiveManifoldFilterN14collectGarbageEv(ptr noundef nonnull align 8 dereferenceable(592) %0) unnamed_addr #3 align 2 personality ptr @__gxx_personality_v0 {
  %2 = getelementptr inbounds nuw i8, ptr %0, i64 96
  %3 = load ptr, ptr %2, align 8, !tbaa !55
  %4 = getelementptr inbounds nuw i8, ptr %0, i64 104
  %5 = load ptr, ptr %4, align 8, !tbaa !56
  %.not.i.i = icmp eq ptr %5, %3
  br i1 %.not.i.i, label %_ZNSt6vectorIN2cv3MatESaIS1_EE5clearEv.exit, label %.lr.ph.i.i.i.i.i

.lr.ph.i.i.i.i.i:                                 ; preds = %1, %.lr.ph.i.i.i.i.i
  %.05.i.i.i.i.i = phi ptr [ %6, %.lr.ph.i.i.i.i.i ], [ %3, %1 ]
  tail call void @_ZN2cv3MatD1Ev(ptr noundef nonnull align 8 dereferenceable(96) %.05.i.i.i.i.i) #27
  %6 = getelementptr inbounds nuw i8, ptr %.05.i.i.i.i.i, i64 96
  %.not.i.i.i.i.i = icmp eq ptr %6, %5
  br i1 %.not.i.i.i.i.i, label %_ZSt8_DestroyIPN2cv3MatES1_EvT_S3_RSaIT0_E.exit.i.i, label %.lr.ph.i.i.i.i.i, !llvm.loop !57

_ZSt8_DestroyIPN2cv3MatES1_EvT_S3_RSaIT0_E.exit.i.i: ; preds = %.lr.ph.i.i.i.i.i
  store ptr %3, ptr %4, align 8, !tbaa !56
  br label %_ZNSt6vectorIN2cv3MatESaIS1_EE5clearEv.exit

_ZNSt6vectorIN2cv3MatESaIS1_EE5clearEv.exit:      ; preds = %1, %_ZSt8_DestroyIPN2cv3MatES1_EvT_S3_RSaIT0_E.exit.i.i
  %7 = getelementptr inbounds nuw i8, ptr %0, i64 72
  %8 = load ptr, ptr %7, align 8, !tbaa !55
  %9 = getelementptr inbounds nuw i8, ptr %0, i64 80
  %10 = load ptr, ptr %9, align 8, !tbaa !56
  %.not.i.i1 = icmp eq ptr %10, %8
  br i1 %.not.i.i1, label %_ZNSt6vectorIN2cv3MatESaIS1_EE5clearEv.exit6, label %.lr.ph.i.i.i.i.i2

.lr.ph.i.i.i.i.i2:                                ; preds = %_ZNSt6vectorIN2cv3MatESaIS1_EE5clearEv.exit, %.lr.ph.i.i.i.i.i2
  %.05.i.i.i.i.i3 = phi ptr [ %11, %.lr.ph.i.i.i.i.i2 ], [ %8, %_ZNSt6vectorIN2cv3MatESaIS1_EE5clearEv.exit ]
  tail call void @_ZN2cv3MatD1Ev(ptr noundef nonnull align 8 dereferenceable(96) %.05.i.i.i.i.i3) #27
  %11 = getelementptr inbounds nuw i8, ptr %.05.i.i.i.i.i3, i64 96
  %.not.i.i.i.i.i4 = icmp eq ptr %11, %10
  br i1 %.not.i.i.i.i.i4, label %_ZSt8_DestroyIPN2cv3MatES1_EvT_S3_RSaIT0_E.exit.i.i5, label %.lr.ph.i.i.i.i.i2, !llvm.loop !57

_ZSt8_DestroyIPN2cv3MatES1_EvT_S3_RSaIT0_E.exit.i.i5: ; preds = %.lr.ph.i.i.i.i.i2
  store ptr %8, ptr %9, align 8, !tbaa !56
  br label %_ZNSt6vectorIN2cv3MatESaIS1_EE5clearEv.exit6

_ZNSt6vectorIN2cv3MatESaIS1_EE5clearEv.exit6:     ; preds = %_ZNSt6vectorIN2cv3MatESaIS1_EE5clearEv.exit, %_ZSt8_DestroyIPN2cv3MatES1_EvT_S3_RSaIT0_E.exit.i.i5
  %12 = getelementptr inbounds nuw i8, ptr %0, i64 120
  %13 = load ptr, ptr %12, align 8, !tbaa !55
  %14 = getelementptr inbounds nuw i8, ptr %0, i64 128
  %15 = load ptr, ptr %14, align 8, !tbaa !56
  %.not.i.i7 = icmp eq ptr %15, %13
  br i1 %.not.i.i7, label %_ZNSt6vectorIN2cv3MatESaIS1_EE5clearEv.exit12, label %.lr.ph.i.i.i.i.i8

.lr.ph.i.i.i.i.i8:                                ; preds = %_ZNSt6vectorIN2cv3MatESaIS1_EE5clearEv.exit6, %.lr.ph.i.i.i.i.i8
  %.05.i.i.i.i.i9 = phi ptr [ %16, %.lr.ph.i.i.i.i.i8 ], [ %13, %_ZNSt6vectorIN2cv3MatESaIS1_EE5clearEv.exit6 ]
  tail call void @_ZN2cv3MatD1Ev(ptr noundef nonnull align 8 dereferenceable(96) %.05.i.i.i.i.i9) #27
  %16 = getelementptr inbounds nuw i8, ptr %.05.i.i.i.i.i9, i64 96
  %.not.i.i.i.i.i10 = icmp eq ptr %16, %15
  br i1 %.not.i.i.i.i.i10, label %_ZSt8_DestroyIPN2cv3MatES1_EvT_S3_RSaIT0_E.exit.i.i11, label %.lr.ph.i.i.i.i.i8, !llvm.loop !57

_ZSt8_DestroyIPN2cv3MatES1_EvT_S3_RSaIT0_E.exit.i.i11: ; preds = %.lr.ph.i.i.i.i.i8
  store ptr %13, ptr %14, align 8, !tbaa !56
  br label %_ZNSt6vectorIN2cv3MatESaIS1_EE5clearEv.exit12

_ZNSt6vectorIN2cv3MatESaIS1_EE5clearEv.exit12:    ; preds = %_ZNSt6vectorIN2cv3MatESaIS1_EE5clearEv.exit6, %_ZSt8_DestroyIPN2cv3MatES1_EvT_S3_RSaIT0_E.exit.i.i11
  %17 = getelementptr inbounds nuw i8, ptr %0, i64 144
  %18 = load ptr, ptr %17, align 8, !tbaa !55
  %19 = getelementptr inbounds nuw i8, ptr %0, i64 152
  %20 = load ptr, ptr %19, align 8, !tbaa !56
  %.not.i.i13 = icmp eq ptr %20, %18
  br i1 %.not.i.i13, label %_ZNSt6vectorIN2cv3MatESaIS1_EE5clearEv.exit18, label %.lr.ph.i.i.i.i.i14

.lr.ph.i.i.i.i.i14:                               ; preds = %_ZNSt6vectorIN2cv3MatESaIS1_EE5clearEv.exit12, %.lr.ph.i.i.i.i.i14
  %.05.i.i.i.i.i15 = phi ptr [ %21, %.lr.ph.i.i.i.i.i14 ], [ %18, %_ZNSt6vectorIN2cv3MatESaIS1_EE5clearEv.exit12 ]
  tail call void @_ZN2cv3MatD1Ev(ptr noundef nonnull align 8 dereferenceable(96) %.05.i.i.i.i.i15) #27
  %21 = getelementptr inbounds nuw i8, ptr %.05.i.i.i.i.i15, i64 96
  %.not.i.i.i.i.i16 = icmp eq ptr %21, %20
  br i1 %.not.i.i.i.i.i16, label %_ZSt8_DestroyIPN2cv3MatES1_EvT_S3_RSaIT0_E.exit.i.i17, label %.lr.ph.i.i.i.i.i14, !llvm.loop !57

_ZSt8_DestroyIPN2cv3MatES1_EvT_S3_RSaIT0_E.exit.i.i17: ; preds = %.lr.ph.i.i.i.i.i14
  store ptr %18, ptr %19, align 8, !tbaa !56
  br label %_ZNSt6vectorIN2cv3MatESaIS1_EE5clearEv.exit18

_ZNSt6vectorIN2cv3MatESaIS1_EE5clearEv.exit18:    ; preds = %_ZNSt6vectorIN2cv3MatESaIS1_EE5clearEv.exit12, %_ZSt8_DestroyIPN2cv3MatES1_EvT_S3_RSaIT0_E.exit.i.i17
  %22 = getelementptr inbounds nuw i8, ptr %0, i64 456
  %23 = load ptr, ptr %22, align 8, !tbaa !55
  %24 = getelementptr inbounds nuw i8, ptr %0, i64 464
  %25 = load ptr, ptr %24, align 8, !tbaa !56
  %.not.i.i19 = icmp eq ptr %25, %23
  br i1 %.not.i.i19, label %_ZNSt6vectorIN2cv3MatESaIS1_EE5clearEv.exit24, label %.lr.ph.i.i.i.i.i20

.lr.ph.i.i.i.i.i20:                               ; preds = %_ZNSt6vectorIN2cv3MatESaIS1_EE5clearEv.exit18, %.lr.ph.i.i.i.i.i20
  %.05.i.i.i.i.i21 = phi ptr [ %26, %.lr.ph.i.i.i.i.i20 ], [ %23, %_ZNSt6vectorIN2cv3MatESaIS1_EE5clearEv.exit18 ]
  tail call void @_ZN2cv3MatD1Ev(ptr noundef nonnull align 8 dereferenceable(96) %.05.i.i.i.i.i21) #27
  %26 = getelementptr inbounds nuw i8, ptr %.05.i.i.i.i.i21, i64 96
  %.not.i.i.i.i.i22 = icmp eq ptr %26, %25
  br i1 %.not.i.i.i.i.i22, label %_ZSt8_DestroyIPN2cv3MatES1_EvT_S3_RSaIT0_E.exit.i.i23, label %.lr.ph.i.i.i.i.i20, !llvm.loop !57

_ZSt8_DestroyIPN2cv3MatES1_EvT_S3_RSaIT0_E.exit.i.i23: ; preds = %.lr.ph.i.i.i.i.i20
  store ptr %23, ptr %24, align 8, !tbaa !56
  br label %_ZNSt6vectorIN2cv3MatESaIS1_EE5clearEv.exit24

_ZNSt6vectorIN2cv3MatESaIS1_EE5clearEv.exit24:    ; preds = %_ZNSt6vectorIN2cv3MatESaIS1_EE5clearEv.exit18, %_ZSt8_DestroyIPN2cv3MatES1_EvT_S3_RSaIT0_E.exit.i.i23
  %27 = getelementptr inbounds nuw i8, ptr %0, i64 168
  tail call void @_ZN2cv3Mat7releaseEv(ptr noundef nonnull align 8 dereferenceable(96) %27)
  %28 = getelementptr inbounds nuw i8, ptr %0, i64 264
  tail call void @_ZN2cv3Mat7releaseEv(ptr noundef nonnull align 8 dereferenceable(96) %28)
  %29 = getelementptr inbounds nuw i8, ptr %0, i64 360
  tail call void @_ZN2cv3Mat7releaseEv(ptr noundef nonnull align 8 dereferenceable(96) %29)
  %30 = getelementptr inbounds nuw i8, ptr %0, i64 480
  tail call void @_ZN2cv3Mat7releaseEv(ptr noundef nonnull align 8 dereferenceable(96) %30)
  %31 = load i32, ptr %30, align 8, !tbaa !6
  %32 = and i32 %31, -4096
  %33 = or disjoint i32 %32, 5
  store i32 %33, ptr %30, align 8, !tbaa !6
  ret void
}